; Function Attrs: mustprogress nofree norecurse nosync nounwind willreturn memory(argmem: readwrite) uwtable
define internal noundef ptr @udata_copy(ptr noundef captures(ret: address, provenance) %0) #4 {
  %2 = getelementptr inbounds nuw i8, ptr %0, i64 60
  %3 = load i32, ptr %2, align 4, !tbaa !20
  %4 = and i32 %3, 2
  %.not = icmp eq i32 %4, 0
  br i1 %.not, label %11, label %5

5:                                                ; preds = %1
  %6 = getelementptr inbounds nuw i8, ptr %0, i64 64
  %7 = load i32, ptr %6, align 8, !tbaa !21
  %8 = icmp eq i32 %7, 0
  br i1 %8, label %11, label %9

9:                                                ; preds = %5
  %10 = add nsw i32 %7, 1
  store i32 %10, ptr %6, align 8, !tbaa !21
  br label %11

11:                                               ; preds = %1, %5, %9
  %.0 = phi ptr [ %0, %9 ], [ null, %5 ], [ null, %1 ]
  ret ptr %.0
}